; Function Attrs: mustprogress uwtable
define void @_ZN8QuantLib25simplifyNotificationGraphERNS_4SwapEb(ptr noundef nonnull align 8 dereferenceable(256) %swap, i1 noundef zeroext %unregisterCoupons) local_unnamed_addr #4 {
entry:
  %call = tail call noundef nonnull align 8 dereferenceable(24) ptr @_ZNK8QuantLib4Swap4legsEv(ptr noundef nonnull align 8 dereferenceable(256) %swap)
  %0 = load ptr, ptr %call, align 8, !tbaa !3
  %_M_finish.i = getelementptr inbounds nuw i8, ptr %call, i64 8
  %1 = load ptr, ptr %_M_finish.i, align 8, !tbaa !3
  %cmp.i.not5 = icmp eq ptr %0, %1
  br i1 %cmp.i.not5, label %for.cond.cleanup, label %for.body

for.cond.cleanup:                                 ; preds = %for.body, %entry
  ret void

for.body:                                         ; preds = %entry, %for.body
  %__begin1.sroa.0.06 = phi ptr [ %incdec.ptr.i, %for.body ], [ %0, %entry ]
  tail call void @_ZN8QuantLib25simplifyNotificationGraphERNS_10InstrumentERKSt6vectorIN5boost10shared_ptrINS_8CashFlowEEESaIS6_EEb(ptr noundef nonnull align 8 dereferenceable(104) %swap, ptr noundef nonnull align 8 dereferenceable(24) %__begin1.sroa.0.06, i1 noundef zeroext %unregisterCoupons)
  %incdec.ptr.i = getelementptr inbounds nuw i8, ptr %__begin1.sroa.0.06, i64 24
  %cmp.i.not = icmp eq ptr %incdec.ptr.i, %1
  br i1 %cmp.i.not, label %for.cond.cleanup, label %for.body
}